target datalayout = "e-m:e-p270:32:32-p271:32:32-p272:64:64-i64:64-i128:128-f80:128-n8:16:32:64-S128"
target triple = "x86_64-pc-linux-gnu"

%struct._stritem = type { ptr, ptr, ptr, i32, i32, i32, i16, i16, i8, i8, [0 x %union.anon] }
%union.anon = type { i64 }

@hashpower = dso_local global i32 16, align 4
@primary_hashtable = internal global ptr null, align 8
@expanding = internal global i8 0, align 1
@expand_bucket = internal global i64 0, align 8
@old_hashtable = internal global ptr null, align 8

; Function Attrs: nounwind uwtable
define dso_local i32 @assoc_insert(ptr noundef %0, i32 noundef %1) #0 {
  %3 = alloca ptr, align 8
  %4 = alloca i32, align 4
  %5 = alloca i64, align 8
  store ptr %0, ptr %3, align 8, !tbaa !25
  store i32 %1, ptr %4, align 4, !tbaa !4
  call void @llvm.lifetime.start.p0(i64 8, ptr %5) #9
  %6 = load i8, ptr @expanding, align 1, !tbaa !22, !range !23, !noundef !24
  %7 = trunc i8 %6 to i1
  br i1 %7, label %8, label %30

8:                                                ; preds = %2
  %9 = load i32, ptr %4, align 4, !tbaa !4
  %10 = zext i32 %9 to i64
  %11 = load i32, ptr @hashpower, align 4, !tbaa !4
  %12 = sub i32 %11, 1
  %13 = zext i32 %12 to i64
  %14 = shl i64 1, %13
  %15 = sub i64 %14, 1
  %16 = and i64 %10, %15
  store i64 %16, ptr %5, align 8, !tbaa !21
  %17 = load i64, ptr @expand_bucket, align 8, !tbaa !21
  %18 = icmp uge i64 %16, %17
  br i1 %18, label %19, label %30

19:                                               ; preds = %8
  %20 = load ptr, ptr @old_hashtable, align 8, !tbaa !8
  %21 = load i64, ptr %5, align 8, !tbaa !21
  %22 = getelementptr inbounds nuw ptr, ptr %20, i64 %21
  %23 = load ptr, ptr %22, align 8, !tbaa !25
  %24 = load ptr, ptr %3, align 8, !tbaa !25
  %25 = getelementptr inbounds nuw %struct._stritem, ptr %24, i32 0, i32 2
  store ptr %23, ptr %25, align 8, !tbaa !25
  %26 = load ptr, ptr %3, align 8, !tbaa !25
  %27 = load ptr, ptr @old_hashtable, align 8, !tbaa !8
  %28 = load i64, ptr %5, align 8, !tbaa !21
  %29 = getelementptr inbounds nuw ptr, ptr %27, i64 %28
  store ptr %26, ptr %29, align 8, !tbaa !25
  br label %53

30:                                               ; preds = %8, %2
  %31 = load ptr, ptr @primary_hashtable, align 8, !tbaa !8
  %32 = load i32, ptr %4, align 4, !tbaa !4
  %33 = zext i32 %32 to i64
  %34 = load i32, ptr @hashpower, align 4, !tbaa !4
  %35 = zext i32 %34 to i64
  %36 = shl i64 1, %35
  %37 = sub i64 %36, 1
  %38 = and i64 %33, %37
  %39 = getelementptr inbounds nuw ptr, ptr %31, i64 %38
  %40 = load ptr, ptr %39, align 8, !tbaa !25
  %41 = load ptr, ptr %3, align 8, !tbaa !25
  %42 = getelementptr inbounds nuw %struct._stritem, ptr %41, i32 0, i32 2
  store ptr %40, ptr %42, align 8, !tbaa !25
  %43 = load ptr, ptr %3, align 8, !tbaa !25
  %44 = load ptr, ptr @primary_hashtable, align 8, !tbaa !8
  %45 = load i32, ptr %4, align 4, !tbaa !4
  %46 = zext i32 %45 to i64
  %47 = load i32, ptr @hashpower, align 4, !tbaa !4
  %48 = zext i32 %47 to i64
  %49 = shl i64 1, %48
  %50 = sub i64 %49, 1
  %51 = and i64 %46, %50
  %52 = getelementptr inbounds nuw ptr, ptr %44, i64 %51
  store ptr %43, ptr %52, align 8, !tbaa !25
  br label %53

53:                                               ; preds = %30, %19
  call void @llvm.lifetime.end.p0(i64 8, ptr %5) #9
  ret i32 1
}