; Function Attrs: mustprogress nofree norecurse nosync nounwind willreturn memory(readwrite, inaccessiblemem: none) uwtable
define dso_local noundef i32 @assoc_insert(ptr noundef initializes((16, 24)) %0, i32 noundef %1) local_unnamed_addr #7 {
  %.b8 = load i1, ptr @expanding, align 1
  %.pre = load i32, ptr @hashpower, align 4, !tbaa !4
  %3 = zext i32 %1 to i64
  br i1 %.b8, label %4, label %._crit_edge

4:                                                ; preds = %2
  %5 = add i32 %.pre, -1
  %6 = zext nneg i32 %5 to i64
  %notmask = shl nsw i64 -1, %6
  %7 = xor i64 %notmask, -1
  %8 = and i64 %7, %3
  %9 = load i64, ptr @expand_bucket, align 8, !tbaa !19
  %.not = icmp ult i64 %8, %9
  br i1 %.not, label %._crit_edge, label %10

10:                                               ; preds = %4
  %11 = load ptr, ptr @old_hashtable, align 8, !tbaa !8
  %12 = getelementptr inbounds nuw ptr, ptr %11, i64 %8
  %13 = load ptr, ptr %12, align 8, !tbaa !20
  %14 = getelementptr inbounds nuw i8, ptr %0, i64 16
  store ptr %13, ptr %14, align 8, !tbaa !20
  store ptr %0, ptr %12, align 8, !tbaa !20
  br label %22

._crit_edge:                                      ; preds = %2, %4
  %15 = load ptr, ptr @primary_hashtable, align 8, !tbaa !8
  %16 = zext nneg i32 %.pre to i64
  %notmask9 = shl nsw i64 -1, %16
  %17 = xor i64 %notmask9, -1
  %18 = and i64 %3, %17
  %19 = getelementptr inbounds nuw ptr, ptr %15, i64 %18
  %20 = load ptr, ptr %19, align 8, !tbaa !20
  %21 = getelementptr inbounds nuw i8, ptr %0, i64 16
  store ptr %20, ptr %21, align 8, !tbaa !20
  store ptr %0, ptr %19, align 8, !tbaa !20
  br label %22

22:                                               ; preds = %._crit_edge, %10
  ret i32 1
}